; Function Attrs: nounwind uwtable
define dso_local range(i64 0, 2) i64 @pg_advisory_unlock_int4(ptr noundef readonly captures(none) %0) local_unnamed_addr #0 {
  %2 = alloca %struct.LOCKTAG, align 4
  %3 = getelementptr inbounds nuw i8, ptr %0, i64 32
  %4 = load i64, ptr %3, align 8
  %5 = trunc i64 %4 to i32
  %6 = getelementptr inbounds nuw i8, ptr %0, i64 48
  %7 = load i64, ptr %6, align 8
  %8 = trunc i64 %7 to i32
  call void @llvm.lifetime.start.p0(i64 16, ptr nonnull %2) #4
  %9 = load i32, ptr @MyDatabaseId, align 4
  store i32 %9, ptr %2, align 4
  %10 = getelementptr inbounds nuw i8, ptr %2, i64 4
  store i32 %5, ptr %10, align 4
  %11 = getelementptr inbounds nuw i8, ptr %2, i64 8
  store i32 %8, ptr %11, align 4
  %12 = getelementptr inbounds nuw i8, ptr %2, i64 12
  store i16 2, ptr %12, align 4
  %13 = getelementptr inbounds nuw i8, ptr %2, i64 14
  store i8 10, ptr %13, align 2
  %14 = getelementptr inbounds nuw i8, ptr %2, i64 15
  store i8 2, ptr %14, align 1
  %15 = call zeroext i1 @LockRelease(ptr noundef nonnull %2, i32 noundef 7, i1 noundef zeroext true) #4
  %16 = zext i1 %15 to i64
  call void @llvm.lifetime.end.p0(i64 16, ptr nonnull %2) #4
  ret i64 %16
}